target datalayout = "e-m:e-p270:32:32-p271:32:32-p272:64:64-i64:64-i128:128-f80:128-n8:16:32:64-S128"
target triple = "x86_64-pc-linux-gnu"

%"class.icu_77::StringPiece" = type <{ ptr, i32, [4 x i8] }>
%"class.icu_77::CurrencyUnit" = type { %"class.icu_77::MeasureUnit.base", [4 x i16], [4 x i8] }
%"class.icu_77::MeasureUnit.base" = type <{ %"class.icu_77::UObject", ptr, i16, i8 }>
%"class.icu_77::UObject" = type { ptr }

@_ZN6icu_77L17kDefaultCurrency8E = internal constant [4 x i8] c"XXX\00", align 1

; Function Attrs: mustprogress nounwind uwtable
define linkonce_odr noundef ptr @_ZNK6icu_7711StringPiece4dataEv(ptr noundef nonnull align 8 dereferenceable(12) %0) #0 comdat align 2 {
  %2 = alloca ptr, align 8
  store ptr %0, ptr %2, align 8, !tbaa !39
  %3 = load ptr, ptr %2, align 8
  %4 = getelementptr inbounds nuw %"class.icu_77::StringPiece", ptr %3, i32 0, i32 0
  %5 = load ptr, ptr %4, align 8, !tbaa !43
  ret ptr %5
}

; Function Attrs: mustprogress nounwind uwtable
define linkonce_odr noundef i32 @_ZNK6icu_7711StringPiece6lengthEv(ptr noundef nonnull align 8 dereferenceable(12) %0) #0 comdat align 2 {
  %2 = alloca ptr, align 8
  store ptr %0, ptr %2, align 8, !tbaa !39
  %3 = load ptr, ptr %2, align 8
  %4 = getelementptr inbounds nuw %"class.icu_77::StringPiece", ptr %3, i32 0, i32 1
  %5 = load i32, ptr %4, align 8, !tbaa !41
  ret i32 %5
}

; Function Attrs: mustprogress uwtable
define void @_ZN6icu_7712CurrencyUnitC2ENS_11StringPieceER10UErrorCode(ptr noundef nonnull align 8 dereferenceable(28) %0, ptr %1, i32 %2, ptr noundef nonnull align 4 dereferenceable(4) %3) unnamed_addr #1 align 2 personality ptr @__gxx_personality_v0 {
  %5 = alloca %"class.icu_77::StringPiece", align 8
  %6 = alloca ptr, align 8
  %7 = alloca ptr, align 8
  %8 = alloca [4 x i8], align 1
  %9 = alloca ptr, align 8
  %10 = alloca ptr, align 8
  %11 = alloca i32, align 4
  %12 = alloca i32, align 4
  %13 = alloca %"class.icu_77::StringPiece", align 8
  %14 = getelementptr inbounds nuw { ptr, i32 }, ptr %5, i32 0, i32 0
  store ptr %1, ptr %14, align 8
  %15 = getelementptr inbounds nuw { ptr, i32 }, ptr %5, i32 0, i32 1
  store i32 %2, ptr %15, align 8
  store ptr %0, ptr %6, align 8, !tbaa !23
  store ptr %3, ptr %7, align 8, !tbaa !22
  %16 = load ptr, ptr %6, align 8
  call void @_ZN6icu_7711MeasureUnitC2Ev(ptr noundef nonnull align 8 dereferenceable(19) %16)
  store ptr getelementptr inbounds inrange(-16, 40) ({ [7 x ptr] }, ptr @_ZTVN6icu_7712CurrencyUnitE, i32 0, i32 0, i32 2), ptr %16, align 8, !tbaa !27
  call void @llvm.lifetime.start.p0(i64 4, ptr %8) #11
  call void @llvm.lifetime.start.p0(i64 8, ptr %9) #11
  %17 = invoke noundef i32 @_ZNK6icu_7711StringPiece6lengthEv(ptr noundef nonnull align 8 dereferenceable(12) %5)
          to label %18 unwind label %27

18:                                               ; preds = %4
  %19 = icmp ne i32 %17, 3
  br i1 %19, label %25, label %20

20:                                               ; preds = %18
  %21 = invoke noundef ptr @_ZNK6icu_7711StringPiece4dataEv(ptr noundef nonnull align 8 dereferenceable(12) %5)
          to label %22 unwind label %27

22:                                               ; preds = %20
  %23 = call noundef ptr @memchr(ptr noundef %21, i32 noundef 0, i64 noundef 3) #14
  %24 = icmp ne ptr %23, null
  br i1 %24, label %25, label %31

25:                                               ; preds = %22, %18
  store ptr @_ZN6icu_77L17kDefaultCurrency8E, ptr %9, align 8, !tbaa !17
  %26 = load ptr, ptr %7, align 8, !tbaa !22
  store i32 1, ptr %26, align 4, !tbaa !15
  br label %67

27:                                               ; preds = %73, %71, %67, %33, %31, %20, %4
  %28 = landingpad { ptr, i32 }
          cleanup
  %29 = extractvalue { ptr, i32 } %28, 0
  store ptr %29, ptr %10, align 8
  %30 = extractvalue { ptr, i32 } %28, 1
  store i32 %30, ptr %11, align 4
  br label %79

31:                                               ; preds = %22
  %32 = invoke noundef ptr @_ZNK6icu_7711StringPiece4dataEv(ptr noundef nonnull align 8 dereferenceable(12) %5)
          to label %33 unwind label %27

33:                                               ; preds = %31
  %34 = invoke signext i8 @uprv_isInvariantString_77(ptr noundef %32, i32 noundef 3)
          to label %35 unwind label %27

35:                                               ; preds = %33
  %36 = icmp ne i8 %34, 0
  br i1 %36, label %39, label %37

37:                                               ; preds = %35
  store ptr @_ZN6icu_77L17kDefaultCurrency8E, ptr %9, align 8, !tbaa !17
  %38 = load ptr, ptr %7, align 8, !tbaa !22
  store i32 26, ptr %38, align 4, !tbaa !15
  br label %66

39:                                               ; preds = %35
  call void @llvm.lifetime.start.p0(i64 4, ptr %12) #11
  store i32 0, ptr %12, align 4, !tbaa !14
  br label %40

40:                                               ; preds = %56, %39
  %41 = load i32, ptr %12, align 4, !tbaa !14
  %42 = icmp slt i32 %41, 3
  br i1 %42, label %44, label %43

43:                                               ; preds = %40
  call void @llvm.lifetime.end.p0(i64 4, ptr %12) #11
  br label %63

44:                                               ; preds = %40
  %45 = invoke noundef ptr @_ZNK6icu_7711StringPiece4dataEv(ptr noundef nonnull align 8 dereferenceable(12) %5)
          to label %46 unwind label %59

46:                                               ; preds = %44
  %47 = load i32, ptr %12, align 4, !tbaa !14
  %48 = sext i32 %47 to i64
  %49 = getelementptr inbounds i8, ptr %45, i64 %48
  %50 = load i8, ptr %49, align 1, !tbaa !37
  %51 = invoke signext i8 @uprv_toupper_77(i8 noundef signext %50)
          to label %52 unwind label %59

52:                                               ; preds = %46
  %53 = load i32, ptr %12, align 4, !tbaa !14
  %54 = sext i32 %53 to i64
  %55 = getelementptr inbounds [4 x i8], ptr %8, i64 0, i64 %54
  store i8 %51, ptr %55, align 1, !tbaa !37
  br label %56

56:                                               ; preds = %52
  %57 = load i32, ptr %12, align 4, !tbaa !14
  %58 = add nsw i32 %57, 1
  store i32 %58, ptr %12, align 4, !tbaa !14
  br label %40, !llvm.loop !38

59:                                               ; preds = %46, %44
  %60 = landingpad { ptr, i32 }
          cleanup
  %61 = extractvalue { ptr, i32 } %60, 0
  store ptr %61, ptr %10, align 8
  %62 = extractvalue { ptr, i32 } %60, 1
  store i32 %62, ptr %11, align 4
  call void @llvm.lifetime.end.p0(i64 4, ptr %12) #11
  br label %79

63:                                               ; preds = %43
  %64 = getelementptr inbounds [4 x i8], ptr %8, i64 0, i64 3
  store i8 0, ptr %64, align 1, !tbaa !37
  %65 = getelementptr inbounds [4 x i8], ptr %8, i64 0, i64 0
  store ptr %65, ptr %9, align 8, !tbaa !17
  br label %66

66:                                               ; preds = %63, %37
  br label %67

67:                                               ; preds = %66, %25
  %68 = load ptr, ptr %9, align 8, !tbaa !17
  %69 = getelementptr inbounds nuw %"class.icu_77::CurrencyUnit", ptr %16, i32 0, i32 1
  %70 = getelementptr inbounds [4 x i16], ptr %69, i64 0, i64 0
  invoke void @u_charsToUChars_77(ptr noundef %68, ptr noundef %70, i32 noundef 4)
          to label %71 unwind label %27

71:                                               ; preds = %67
  %72 = load ptr, ptr %9, align 8, !tbaa !17
  invoke void @_ZN6icu_7711StringPieceC1EPKc(ptr noundef nonnull align 8 dereferenceable(12) %13, ptr noundef %72)
          to label %73 unwind label %27

73:                                               ; preds = %71
  %74 = getelementptr inbounds nuw { ptr, i32 }, ptr %13, i32 0, i32 0
  %75 = load ptr, ptr %74, align 8
  %76 = getelementptr inbounds nuw { ptr, i32 }, ptr %13, i32 0, i32 1
  %77 = load i32, ptr %76, align 8
  invoke void @_ZN6icu_7711MeasureUnit12initCurrencyENS_11StringPieceE(ptr noundef nonnull align 8 dereferenceable(19) %16, ptr %75, i32 %77)
          to label %78 unwind label %27

78:                                               ; preds = %73
  call void @llvm.lifetime.end.p0(i64 8, ptr %9) #11
  call void @llvm.lifetime.end.p0(i64 4, ptr %8) #11
  ret void

79:                                               ; preds = %59, %27
  call void @llvm.lifetime.end.p0(i64 8, ptr %9) #11
  call void @llvm.lifetime.end.p0(i64 4, ptr %8) #11
  call void @_ZN6icu_7711MeasureUnitD2Ev(ptr noundef nonnull align 8 dereferenceable(19) %16) #11
  br label %80

80:                                               ; preds = %79
  %81 = load ptr, ptr %10, align 8
  %82 = load i32, ptr %11, align 4
  %83 = insertvalue { ptr, i32 } poison, ptr %81, 0
  %84 = insertvalue { ptr, i32 } %83, i32 %82, 1
  resume { ptr, i32 } %84
}