; Function Attrs: mustprogress uwtable
define void @_ZN6icu_7712CurrencyUnitC2ENS_11StringPieceER10UErrorCode(ptr noundef nonnull align 8 dereferenceable(28) %0, ptr %1, i32 %2, ptr noundef nonnull writeonly align 4 captures(none) dereferenceable(4) %3) unnamed_addr #1 align 2 personality ptr @__gxx_personality_v0 {
  %5 = alloca [4 x i8], align 1
  %6 = alloca %"class.icu_77::StringPiece", align 8
  tail call void @_ZN6icu_7711MeasureUnitC2Ev(ptr noundef nonnull align 8 dereferenceable(19) %0)
  store ptr getelementptr inbounds nuw inrange(-16, 40) (i8, ptr @_ZTVN6icu_7712CurrencyUnitE, i64 16), ptr %0, align 8, !tbaa !15
  call void @llvm.lifetime.start.p0(i64 4, ptr nonnull %5) #14
  %.not = icmp eq i32 %2, 3
  br i1 %.not, label %7, label %9

7:                                                ; preds = %4
  %8 = tail call noundef ptr @memchr(ptr noundef nonnull dereferenceable(1) %1, i32 noundef 0, i64 noundef 3) #17
  %.not13 = icmp eq ptr %8, null
  br i1 %.not13, label %12, label %9

9:                                                ; preds = %7, %4
  store i32 1, ptr %3, align 4, !tbaa !13
  br label %25

10:                                               ; preds = %28, %27, %25, %12
  %11 = landingpad { ptr, i32 }
          cleanup
  br label %33

12:                                               ; preds = %7
  %13 = invoke signext i8 @uprv_isInvariantString_77(ptr noundef nonnull %1, i32 noundef 3)
          to label %14 unwind label %10

14:                                               ; preds = %12
  %.not14 = icmp eq i8 %13, 0
  br i1 %.not14, label %15, label %.preheader

15:                                               ; preds = %14
  store i32 26, ptr %3, align 4, !tbaa !13
  br label %25

16:                                               ; preds = %21
  %17 = getelementptr inbounds nuw i8, ptr %5, i64 3
  store i8 0, ptr %17, align 1, !tbaa !24
  br label %25

.preheader:                                       ; preds = %14, %21
  %indvars.iv = phi i64 [ %indvars.iv.next, %21 ], [ 0, %14 ]
  %18 = getelementptr inbounds nuw i8, ptr %1, i64 %indvars.iv
  %19 = load i8, ptr %18, align 1, !tbaa !24
  %20 = invoke signext i8 @uprv_toupper_77(i8 noundef signext %19)
          to label %21 unwind label %23

21:                                               ; preds = %.preheader
  %22 = getelementptr inbounds nuw [4 x i8], ptr %5, i64 0, i64 %indvars.iv
  store i8 %20, ptr %22, align 1, !tbaa !24
  %indvars.iv.next = add nuw nsw i64 %indvars.iv, 1
  %exitcond.not = icmp eq i64 %indvars.iv.next, 3
  br i1 %exitcond.not, label %16, label %.preheader, !llvm.loop !25

23:                                               ; preds = %.preheader
  %24 = landingpad { ptr, i32 }
          cleanup
  br label %33

25:                                               ; preds = %15, %16, %9
  %.012 = phi ptr [ @_ZN6icu_77L17kDefaultCurrency8E, %9 ], [ %5, %16 ], [ @_ZN6icu_77L17kDefaultCurrency8E, %15 ]
  %26 = getelementptr inbounds nuw i8, ptr %0, i64 20
  invoke void @u_charsToUChars_77(ptr noundef nonnull %.012, ptr noundef nonnull %26, i32 noundef 4)
          to label %27 unwind label %10

27:                                               ; preds = %25
  invoke void @_ZN6icu_7711StringPieceC1EPKc(ptr noundef nonnull align 8 dereferenceable(12) %6, ptr noundef nonnull %.012)
          to label %28 unwind label %10

28:                                               ; preds = %27
  %29 = load ptr, ptr %6, align 8
  %30 = getelementptr inbounds nuw i8, ptr %6, i64 8
  %31 = load i32, ptr %30, align 8
  invoke void @_ZN6icu_7711MeasureUnit12initCurrencyENS_11StringPieceE(ptr noundef nonnull align 8 dereferenceable(19) %0, ptr %29, i32 %31)
          to label %32 unwind label %10

32:                                               ; preds = %28
  call void @llvm.lifetime.end.p0(i64 4, ptr nonnull %5) #14
  ret void

33:                                               ; preds = %23, %10
  %.pn = phi { ptr, i32 } [ %11, %10 ], [ %24, %23 ]
  call void @llvm.lifetime.end.p0(i64 4, ptr nonnull %5) #14
  call void @_ZN6icu_7711MeasureUnitD2Ev(ptr noundef nonnull align 8 dereferenceable(19) %0) #14
  resume { ptr, i32 } %.pn
}